     1                                  ; ****************************************************************************
     2                                  ; FDFORMAT.ASM (FDFORMAT.COM) - TRDOS 386 Floppy Disk Formatting Utility
     3                                  ; 						      (for MSDOS/WINDOWS)
     4                                  ; ----------------------------------------------------------------------------
     5                                  ; Only for 1.44MB (3.5") Floppy Disks
     6                                  ; ****************************************************************************
     7                                  ; Last Update: 12/02/2018
     8                                  ; ----------------------------------------------------------------------------
     9                                  ; Beginning: 23/11/2017
    10                                  ; ----------------------------------------------------------------------------
    11                                  ; Assembler: NASM version 2.11
    12                                  ; ----------------------------------------------------------------------------
    13                                  ; Turkish Rational DOS
    14                                  ; Operating System Project v2.0 by ERDOGAN TAN (Beginning: 04/01/2016)
    15                                  ;
    16                                  ; Derived from TRDOS Operating System v2.0 (80386) source code by Erdogan Tan
    17                                  ; TRFDBOOT.S (TRFDBOOT.COM), 06/07/2016
    18                                  ;
    19                                  ; Derived from TRDOS Operating System v1.0 (8086) source code by Erdogan Tan
    20                                  ; FDFORMAT1.ASM (31/07/2011)
    21                                  ; ****************************************************************************
    22                                  ; nasm fdformat.asm -l fdformat.lst -o FDFORMAT.COM
    23                                  
    24                                  
    25                                  bsDriveNumber   equ TRDOS_FAT12_fd_bs + 36
    26                                  bsVolumeID      equ TRDOS_FAT12_fd_bs + 39
    27                                  bsVolumeLabel   equ TRDOS_FAT12_fd_bs + 43
    28                                  
    29                                  [BITS 16]
    30                                  [ORG 100h]
    31                                  
    32                                  	;cli
    33                                  	;cld
    34                                  	;push	cs
    35                                  	;pop	ss
    36                                  	;mov	sp, 0FFFEh
    37                                  	;sti
    38                                  
    39                                  ;- - - - - - - - - - - - - - - - - - - - - - - - - - - - - - - - -
    40                                  ; see if drive specified
    41                                  ;- - - - - - - - - - - - - - - - - - - - - - - - - - - - - - - - -
    42                                  
    43 00000000 BE8000                  	mov	si, 80h			; PSP command tail
    44 00000003 8A0C                    	mov	cl, [si]
    45 00000005 08C9                    	or	cl, cl                               
    46 00000007 7473                    	jz	short T_07		; jump if zero
    47                                  
    48                                  T_01:
    49 00000009 46                      	inc	si
    50                                  
    51 0000000A 8A04                    	mov	al, [si]
    52 0000000C 3C20                    	cmp	al, ' '			; is it SPACE ?
    53 0000000E 750A                    	jne	short T_03
    54                                  
    55 00000010 FEC9                    	dec	cl                                  
    56 00000012 75F5                    	jnz	short T_01                  
    57 00000014 EB66                    	jmp	short T_07
    58                                  
    59                                  T_02:
    60 00000016 0411                    	add	al, 'A'-'0'		; 0 based -> A based
    61 00000018 EB1A                    	jmp	short T_04
    62                                  
    63                                  T_03:
    64 0000001A 3C30                    	cmp	al, '0'			; 0 - 9
    65 0000001C 725E                    	jb	short T_07
    66 0000001E 3C39                    	cmp	al, '9'			; allow number for drive
    67 00000020 76F4                    	jna	short T_02
    68                                               
    69 00000022 3C41                    	cmp	al, 'A'
    70 00000024 7256                    	jb	short T_07
    71 00000026 3C5A                    	cmp	al, 'Z'			; A - Z
    72 00000028 760A                    	jna	short T_04                    
    73 0000002A 3C61                    	cmp	al, 'a'			; a - z 
    74 0000002C 724E                    	jb	short T_07                  
    75 0000002E 3C7A                    	cmp	al, 'z'                           
    76 00000030 774A                    	ja	short T_07                 
    77                                  
    78 00000032 2C20                    	sub	al, 'a'-'A'		; to upper case
    79                                  
    80                                  ;- - - - - - - - - - - - - - - - - - - - - - - - - - - - - - - - -
    81                                  ; write drive letter
    82                                  ;- - - - - - - - - - - - - - - - - - - - - - - - - - - - - - - - -
    83                                  
    84                                  T_04:
    85 00000034 A2[DA03]                	mov	[TrDOS_Drive], al
    86                                  
    87                                  ;- - - - - - - - - - - - - - - - - - - - - - - - - - - - - - - - -
    88                                  ; Check disk parameters
    89                                  ;- - - - - - - - - - - - - - - - - - - - - - - - - - - - - - - - -
    90                                  
    91 00000037 2C41                    	sub	al, 'A'			; make it zero based 
    92 00000039 88C2                    	mov	dl, al                           
    93                                          ;mov	si, bsDriveNumber
    94                                  	;mov	[si], al
    95 0000003B A2[FF08]                	mov	[bsDriveNumber], al
    96 0000003E B408                    	mov	ah, 08h
    97 00000040 CD13                    	int	13h			; return disk parameters
    98 00000042 0F826501                	jc	T_19
    99                                  
   100 00000046 0E                      	push	cs
   101 00000047 07                      	pop	es			; restore es
   102                                  
   103 00000048 80FB04                  	cmp	bl, 04			; Drive Type
   104 0000004B 0F825C01                  	jb	T_19
   105                                  
   106                                  ;- - - - - - - - - - - - - - - - - - - - - - - - - - - - - - - - -
   107                                  ; Format question
   108                                  ;- - - - - - - - - - - - - - - - - - - - - - - - - - - - - - - - -
   109                                  
   110 0000004F BE[8803]                	mov	si, Msg_DoYouWantToFormat
   111 00000052 E89F01                  	call	print_msg
   112                                  
   113                                  T_05:
   114 00000055 31C0                    	xor	ax, ax
   115 00000057 CD16                    	int	16h			; wait for keyboard command
   116 00000059 3C03                    	cmp	al, 'C'-40h
   117 0000005B 7414                    	je	short T_06 ; Exit                   
   118 0000005D 3C1B                    	cmp	al, 27
   119 0000005F 7410                    	je	short T_06 ; Exit
   120 00000061 24DF                    	and	al, 0DFh
   121 00000063 3C59                    	cmp	al, 'Y'				; Yes?
   122 00000065 741D                    	je	short T_08			; write
   123 00000067 3C4E                    	cmp	al, 'N'				; No?
   124 00000069 75EA                    	jne	short T_05          
   125                                  						; no write (exit)  
   126 0000006B BE[8604]                	mov	si, Msg_NO
   127 0000006E E88301                  	call	print_msg 
   128                                  
   129                                  ;- - - - - - - - - - - - - - - - - - - - - - - - - - - - - - - - -
   130                                  ; Nextline & Exit
   131                                  ;- - - - - - - - - - - - - - - - - - - - - - - - - - - - - - - - -
   132                                  
   133                                  T_06:
   134 00000071 BE[7E04]                	mov	si, CRLF
   135 00000074 E87D01                  	call	print_msg
   136 00000077 B8004C                  	mov	ax, 4C00h		; terminate
   137 0000007A CD21                    	int	21h
   138                                  
   139                                  T_07:
   140 0000007C BE[1203]                	mov	si, TrDOS_Welcome
   141 0000007F E87201                  	call	print_msg
   142 00000082 EBED                    	jmp	short T_06 ; Exit
   143                                  
   144                                  ;- - - - - - - - - - - - - - - - - - - - - - - - - - - - - - - - -
   145                                  ; writing root directory sectors
   146                                  ;- - - - - - - - - - - - - - - - - - - - - - - - - - - - - - - - -
   147                                  
   148                                  T_08:
   149 00000084 BE[8104]                	mov	si, Msg_YES
   150 00000087 E86A01                  	call	print_msg
   151                                  T_09:
   152 0000008A BE[7E04]                	mov	si, CRLF
   153 0000008D E86401                  	call	print_msg
   154                                  
   155 00000090 BE[0704]                	mov	si, Msg_Writing_Root_Dir
   156 00000093 E85E01                  	call	print_msg
   157                                  
   158 00000096 B81300                  	mov	ax, 19  ; Root Directory Address
   159 00000099 BB[C106]                	mov	bx, FDFORMAT_FATBUFFER_S9
   160                                  T_10:
   161 0000009C E86401                  	call	write_fd_sector
   162 0000009F 0F820801                	jc	T_19
   163 000000A3 40                      	inc	AX
   164 000000A4 83F820                   	cmp	AX, 32
   165 000000A7 76F3                    	jna	short T_10
   166                                  
   167 000000A9 BE[7A04]                	mov	si, Msg_OK
   168 000000AC E84501                  	call	print_msg
   169                                  
   170                                  ;- - - - - - - - - - - - - - - - - - - - - - - - - - - - - - - - -
   171                                  ; writing data sectors
   172                                  ;- - - - - - - - - - - - - - - - - - - - - - - - - - - - - - - - -
   173                                  
   174 000000AF BE[2904]                	mov	si, Msg_Writing_Data_Sectors
   175 000000B2 E83F01                  	call	print_msg
   176 000000B5 B403                    	mov	ah, 3
   177 000000B7 BB0700                  	mov	bx, 7
   178 000000BA CD10                    	int	10h ; Return Cursor Position
   179                                  	; DL = Column, DH= Line
   180 000000BC 8916[4404]              	mov	[Cursor_Pos], dx
   181 000000C0 B82100                  	mov	ax, 33  ; First Data Sector
   182                                  T_11:
   183 000000C3 50                      	push	ax
   184 000000C4 40                      	inc	ax ; 1 based printing of 0 based sectors
   185 000000C5 BE[4204]                	mov	si, Sector_Str + 3
   186 000000C8 E89901                  	call	bin_to_decimal
   187 000000CB 8B16[4404]              	mov	dx, [Cursor_Pos]
   188 000000CF B402                    	mov	ah, 2
   189 000000D1 CD10                    	int	10h  ; Set Cursor Position
   190 000000D3 E81E01                  	call	print_msg
   191 000000D6 58                      	pop	ax
   192 000000D7 BB[BE04]                	mov	bx, FDFORMAT_SECBUFFER
   193 000000DA E82601                  	call	write_fd_sector
   194 000000DD 730C                    	jnc	short T_12
   195 000000DF 80E416                  	and	ah, 16h  ; Errors: 2h, 4h, 10h
   196 000000E2 0F84C500                	jz	T_19 ; Drive not ready msg
   197                                  
   198                                  	; DX = LBA sector value
   199 000000E6 52                      	push	dx
   200 000000E7 E84901                  	call	mark_bad_cluster
   201 000000EA 58                      	pop	ax
   202                                  T_12:
   203 000000EB BB0700                  	mov	bx, 7
   204 000000EE 40                      	inc	ax
   205 000000EF 3D400B                  	cmp	ax, 2880
   206 000000F2 72CF                    	jb	short T_11
   207                                  
   208 000000F4 BE[7704]                	mov	si, Msg_3dot_OK
   209 000000F7 E8FA00                  	call	print_msg
   210                                  
   211                                  ;- - - - - - - - - - - - - - - - - - - - - - - - - - - - - - - - -
   212                                  ; writing FAT sectors
   213                                  ;- - - - - - - - - - - - - - - - - - - - - - - - - - - - - - - - -
   214                                  
   215 000000FA BE[4604]                	mov	si, Msg_Writing_FAT_Sectors
   216 000000FD E8F400                  	call	print_msg
   217 00000100 B80100                  	mov	ax, 1  ; FAT Beginning Address
   218 00000103 BB[BE06]                	mov	bx, FDFORMAT_FATBUFFER
   219 00000106 E8FA00                  	call	write_fd_sector
   220 00000109 0F829E00                	jc	T_19
   221 0000010D BB[C106]                	mov	bx, FDFORMAT_FATBUFFER_S9
   222                                  T_13:
   223 00000110 40                      	inc	ax
   224 00000111 E8EF00                  	call	write_fd_sector
   225 00000114 0F829300                 	jc	T_19
   226 00000118 83F809                  	cmp	ax, 9
   227 0000011B 72F3                    	jb	short T_13
   228 0000011D BB[BE06]                	mov	bx, FDFORMAT_FATBUFFER
   229 00000120 40                      	inc	ax
   230 00000121 E8DF00                  	call	write_fd_sector
   231 00000124 0F828300                	jc	T_19
   232 00000128 BB[C106]                	mov	bx, FDFORMAT_FATBUFFER_S9
   233                                  T_14:
   234 0000012B 40                      	inc	ax 
   235 0000012C E8D400                          call	write_fd_sector
   236 0000012F 727A                    	jc	short T_19
   237 00000131 83F812                  	cmp	ax, 18
   238 00000134 72F5                    	jb	short T_14
   239                                  
   240 00000136 BE[7A04]                	mov	si, Msg_OK
   241 00000139 E8B800                  	call	print_msg
   242                                  
   243 0000013C BE[6904]                	mov	si, Msg_Volume_Name
   244 0000013F E8B200                  	call	print_msg
   245 00000142 E83401                  	call	rw_char
   246 00000145 7219                    	jc	short T_17
   247 00000147 8A04                    	mov	al, [si]
   248 00000149 3C20                    	cmp	al, 20h
   249 0000014B 7613                    	jna	short T_17
   250 0000014D BF[0609]                	mov	di, bsVolumeLabel
   251 00000150 B90B00                  	mov	cx, 11
   252 00000153 46                      	inc	si  
   253 00000154 EB06                    	jmp	short T_16  
   254                                  
   255                                  T_15:
   256 00000156 AC                      	lodsb
   257 00000157 47                      	inc	di
   258 00000158 3C20                    	cmp	al, 20h
   259 0000015A 7673                    	jna	short T_22
   260                                  T_16:
   261 0000015C 8805                    	mov 	[di], al
   262 0000015E E2F6                    	loop	T_15
   263                                  
   264                                  T_17:
   265 00000160 BE[E803]                	mov	si, Msg_Writing_Boot_Sector
   266 00000163 E88E00                  	call	print_msg
   267                                  
   268 00000166 C606[DA08]04            	mov	byte [RetryCount], 4
   269                                  T_18:
   270 0000016B BE[0209]                	mov	si, bsVolumeID
   271                                  
   272 0000016E 31C0                    	xor	ax, ax
   273 00000170 CD1A                    	int	1Ah			; get time of day
   274 00000172 8914                    	mov	[si], dx
   275 00000174 894C02                  	mov	[si+2], cx		; set unique volume ID
   276                                  
   277 00000177 B402                    	mov	ah, 02h			; Return Current Time
   278 00000179 CD1A                    	int	1Ah
   279 0000017B 86E9                    	xchg	ch, cl
   280 0000017D 86F2                    	xchg	dh, dl
   281                                  
   282 0000017F 01D1                    	add	cx, dx  
   283 00000181 014C02                  	add	[si+2], cx
   284                                                 
   285 00000184 B404                    	mov	ah, 04h			; Return Current Date
   286 00000186 CD1A                    	int	1Ah
   287 00000188 86E9                    	xchg	ch,cl
   288 0000018A 86F2                    	xchg	dh,dl
   289                                  
   290 0000018C 01D1                    	add	cx, dx  
   291 0000018E 014C02                  	add	[si+2], cx
   292                                  
   293 00000191 B80103                  	mov	ax, 0301h		; write to disk
   294 00000194 BB[DB08]                	mov	bx, TRDOS_FAT12_fd_bs	; location of boot code
   295                                  
   296 00000197 B90100                  	mov	cx, 1			; cylinder = 0
   297                                                       			; sector = 1
   298 0000019A B600                    	mov	dh, 0			; head = 0
   299 0000019C BE[FF08]                	mov	si, bsDriveNumber
   300 0000019F 8A14                    	mov	dl, byte [si]
   301 000001A1 CD13                    	int	13h
   302 000001A3 7347                    	jnc	short T_24
   303 000001A5 FE0E[DA08]              	dec	byte [RetryCount]
   304 000001A9 75C0                    	jnz	short T_18
   305                                  
   306                                  T_19:
   307 000001AB BE[8A04]                	mov	si, Disk_NotReadyOrError
   308 000001AE E84300                  	call	print_msg
   309                                  
   310                                  T_20:
   311 000001B1 31C0                    	xor	ax, ax
   312 000001B3 CD16                    	int	16h			; wait for keyboard command
   313 000001B5 3C03                    	cmp	al, 'C'-40h
   314 000001B7 740E                    	je	short T_21 ; Exit                   
   315 000001B9 3C1B                    	cmp	al, 27
   316 000001BB 740A                     	je	short T_21 ; Exit
   317 000001BD 24DF                    	and	al, 0DFh
   318 000001BF 3C59                    	cmp	al, 'Y'
   319 000001C1 7414                    	je	short T_23		; Retry
   320 000001C3 3C4E                    	cmp	al, 'N'
   321 000001C5 75EA                    	jne	short short T_20
   322                                  
   323                                  T_21:					; Exit
   324 000001C7 BE[7E04]                	mov	si, CRLF
   325 000001CA E82700                  	call	print_msg
   326                                  
   327 000001CD CD20                    	int	20h
   328                                  
   329                                  T_22:
   330 000001CF C60520                  	mov	byte [DI], 20h
   331 000001D2 47                      	inc	di
   332 000001D3 E2FA                    	loop	T_22
   333 000001D5 EB89                    	jmp	short T_17
   334                                  
   335                                  T_23:
   336 000001D7 BE[FF08]                	mov	si, bsDriveNumber
   337 000001DA 8A14                    	mov	dl, byte [si]
   338 000001DC B408                    	mov	ah, 08h
   339 000001DE CD13                    	int	13h			; return disk parameters
   340 000001E0 72C9                    	jc	short T_19
   341                                  
   342 000001E2 0E                      	push	cs
   343 000001E3 07                      	pop	es			; restore es
   344                                  
   345 000001E4 80FB04                  	cmp	bl, 04h			; Drive Type
   346 000001E7 72C2                    	jb	short T_19
   347                                  
   348 000001E9 E99EFE                  	jmp	T_09
   349                                  
   350                                  T_24:
   351 000001EC BE[7A04]                	mov	si, Msg_OK
   352 000001EF E80200                  	call	print_msg
   353 000001F2 EBD3                    	jmp	short T_21
   354                                  
   355                                  print_msg:
   356                                  
   357                                  print_msg_LOOP:
   358 000001F4 AC                      	lodsb                           ; Load byte at DS:SI to AL
   359 000001F5 20C0                    	and     al, al            
   360 000001F7 7409                    	jz      short print_msg_OK       
   361 000001F9 B40E                    	mov	ah, 0Eh			
   362 000001FB BB0700                  	mov     bx, 07h             
   363 000001FE CD10                    	int	10h			; BIOS Service func ( ah ) = 0Eh
   364                                  					; Write char as TTY
   365                                  					; AL-char BH-page BL-color
   366 00000200 EBF2                    	jmp     short print_msg_LOOP           
   367                                  
   368                                  print_msg_OK:
   369 00000202 C3                      	retn
   370                                  
   371                                  write_fd_sector:
   372                                  	; Only for 1.44 MB FAT12 Floppy Disks
   373                                  	; INPUT -> AX = Logical Block Address
   374                                  	; ES:BX = Sector Buffer
   375                                  	; OUTPUT ->
   376                                  	; cf = 0 -> AX = Logical Block Address
   377                                  	; cf = 1 -> DX = Logical Block Address
   378                                  	; cf = 1 -> AH = Error Number
   379                                  	;
   380 00000203 B90400                  	mov	cx, 4  ; Retry Count
   381                                  loc_write_fdisk_chs:
   382 00000206 50                      	push	ax                      ; Linear sector number
   383 00000207 51                      	push	cx                      
   384 00000208 BA1200                  	mov	dx, 18                  ; Sectors per Track
   385 0000020B F6F2                    	div	dl
   386 0000020D 88E1                    	mov	cl, ah                  ; Sector (zero based)
   387 0000020F FEC1                    	inc	cl                      ; To make it 1 based
   388 00000211 D0E8                    	shr	al, 1                   ; Convert Track to Cylinder
   389 00000213 80D600                  	adc	dh, 0                   ; Head (0 or 1)
   390                                  	;mov	si, bsDriveNumber
   391                                  	;mov	dl, [si]
   392 00000216 8A16[FF08]              	mov	dl, [bsDriveNumber]
   393 0000021A 88C5                    	mov	ch, al                   
   394 0000021C B80103                  	mov	ax, 0301h
   395 0000021F CD13                    	int	13h                     ; BIOS Service func ( ah ) = 3
   396                                                                          ; Write disk sectors
   397 00000221 8826[BD04]              	mov 	[Error_Code], ah
   398 00000225 59                      	pop	cx
   399 00000226 58                      	pop	ax
   400                                  
   401 00000227 7309                    	jnc	short pass_write_fdisk_chs_error
   402 00000229 E2DB                    	loop	loc_write_fdisk_chs
   403 0000022B 89C2                    	mov	dx, ax
   404 0000022D 8A26[BD04]              	mov	ah, [Error_Code]
   405 00000231 F9                      	stc
   406                                  pass_write_fdisk_chs_error:
   407 00000232 C3                      	retn
   408                                  
   409                                  mark_bad_cluster:
   410                                  	; Only for FAT12 Floppy Disks (Full FAT Buffer)
   411                                  	; INPUT -> AX = Cluster/Sector Number
   412                                  	; OUTPUT -> 0FF7h = BAD Cluster Value
   413 00000233 BA0300                  	mov     dx, 3
   414 00000236 F7E2                    	mul     dx
   415 00000238 D1E8                    	shr     ax, 1 ; Divide by 2
   416 0000023A 89C3                    	mov     bx, ax  ; FAT Buffer Byte Offset
   417 0000023C BAF70F                  	mov     dx, 0FF7h ; "BAD CLUSTER" sign
   418                                  loc_update_fat12_cell:
   419 0000023F 8B87[BE06]              	mov     ax, [FDFORMAT_FATBUFFER+BX]
   420 00000243 7312                    	jnc     short uc_FAT12_nc_even
   421 00000245 83E00F                  	and     ax, 0Fh
   422 00000248 D1E2                    	shl     dx, 1
   423 0000024A D1E2                    	shl     dx, 1
   424 0000024C D1E2                    	shl     dx, 1
   425 0000024E D1E2                    	shl     dx, 1
   426 00000250 09C2                    	or      dx, ax
   427 00000252 8997[BE06]              	mov     [FDFORMAT_FATBUFFER+bx], dx
   428 00000256 C3                      	retn
   429                                  uc_FAT12_nc_even:
   430 00000257 2500F0                  	and     ax, 0F000h
   431 0000025A 80E60F                  	and     dh, 0Fh
   432 0000025D 09C2                    	or      dx, ax
   433 0000025F 8997[BE06]              	mov     [FDFORMAT_FATBUFFER+bx], dx
   434 00000263 C3                      	retn
   435                                  
   436                                  bin_to_decimal:
   437                                  	; INPUT: DS:SI = Target location
   438                                  	;        AX= Binary Number (Integer)
   439                                  	; OUTPUT: Decimal char at DS:SI
   440                                  	; SI decremented after every division
   441                                  	; till AX<10.
   442                                  	; CX, DX will be changed.
   443                                  	;
   444 00000264 B90A00                  	mov	cx, 10
   445                                  loc_btd_re_divide:
   446 00000267 31D2                    	xor	dx, dx
   447 00000269 F7F1                    	div	cx
   448 0000026B 80C230                  	add	dl,"0"
   449 0000026E 8814                    	mov	[si], dl
   450 00000270 83F800                  	cmp	ax, 0
   451 00000273 7603                    	jna	short pass_btd_re_divide
   452 00000275 4E                      	dec	si
   453 00000276 EBEF                    	jmp	short loc_btd_re_divide
   454                                  pass_btd_re_divide:
   455 00000278 C3                      	retn
   456                                  
   457                                  rw_char:
   458                                  	; OUTPUT -> DS:SI = Entered String (ASCIIZ)
   459 00000279 BE[5D04]                	mov     si, StrVolumeName
   460 0000027C BB0700                  	mov     bx, 7
   461 0000027F B403                    	mov     ah, 3
   462 00000281 CD10                    	int     10h
   463 00000283 8916[4404]              	mov     [Cursor_Pos], dx
   464                                  read_next_char:
   465 00000287 30E4                    	xor     ah, ah
   466 00000289 CD16                    	int     16h
   467 0000028B 20C0                    	and     al, al
   468 0000028D 7439                    	jz      short loc_arrow    
   469 0000028F 3CE0                    	cmp     al, 0E0h          
   470 00000291 7435                    	je      short loc_arrow
   471 00000293 3C08                    	cmp     al, 8
   472 00000295 753D                    	jne     short char_return
   473                                  loc_back:
   474 00000297 B403                    	mov     ah, 3
   475 00000299 CD10                    	int     10h
   476 0000029B 3A16[4404]              	cmp     dl, byte [Cursor_Pos]
   477 0000029F 761F                    	jna     short loc_beep
   478                                  prev_column:
   479 000002A1 FECA                    	dec     dl
   480                                  set_cursor_pos:
   481 000002A3 B402                    	mov     ah, 2
   482 000002A5 CD10                    	int     10h
   483 000002A7 88D3                    	mov     bl, dl
   484 000002A9 2A1E[4404]              	sub     bl, byte [Cursor_Pos] 
   485 000002AD B90100                  	mov     cx,1
   486 000002B0 B409                    	mov     ah, 9
   487 000002B2 B020                    	mov     al, 20h
   488 000002B4 8800                    	mov     [si+bx], al
   489                                  loc_write_it:
   490 000002B6 B307                    	mov     bl, 7
   491 000002B8 CD10                    	int     10h
   492 000002BA 8B16[4404]              	mov     dx, [Cursor_Pos]
   493 000002BE EBC7                    	jmp     short read_next_char
   494                                  loc_beep:
   495 000002C0 B40E                    	mov     ah, 0Eh
   496 000002C2 B007                    	mov     al, 7
   497 000002C4 CD10                    	int     10h
   498 000002C6 EBBF                    	jmp     short read_next_char
   499                                  loc_arrow:    
   500 000002C8 80FC4B                  	cmp     ah, 4Bh
   501 000002CB 74CA                    	je      short loc_back
   502 000002CD 80FC53                  	cmp     ah, 53h
   503 000002D0 74C5                    	je      short loc_back
   504 000002D2 EBB3                    	jmp     short read_next_char
   505                                  char_return:
   506 000002D4 B403                    	mov     ah, 3
   507 000002D6 CD10                    	int     10h
   508                                  check_char_type:
   509 000002D8 3C20                    	cmp     al, 20h
   510 000002DA 7230                    	jb      short loc_escape
   511 000002DC 88D4                    	mov     ah, dl
   512 000002DE 2A26[4404]              	sub     ah, byte [Cursor_Pos] 
   513 000002E2 80FC0A                  	cmp     ah, 10
   514 000002E5 77D9                    	ja      short loc_beep
   515 000002E7 3C7A                    	cmp     al, "z"
   516 000002E9 779C                    	ja      short read_next_char
   517 000002EB 3C61                    	cmp     al, "a"
   518 000002ED 7202                    	jb      short pass_capitalize
   519 000002EF 24DF                    	and     al, 0DFh
   520                                  pass_capitalize:
   521 000002F1 88E3                    	mov     bl, ah  ; 30/07/2011
   522 000002F3 30E4                    	xor     ah, ah
   523 000002F5 8900                    	mov     [si+bx], ax
   524 000002F7 B307                    	mov     bl, 7
   525 000002F9 B40E                    	mov     ah, 0Eh
   526 000002FB CD10                    	int     10h
   527 000002FD EB88                    	jmp     short read_next_char
   528                                  pass_escape:
   529 000002FF 3C0D                    	cmp     al, 0Dh
   530 00000301 7584                    	jne     short read_next_char
   531 00000303 B40E                    	mov     ah, 0Eh
   532 00000305 CD10                    	int     10h
   533 00000307 B00A                    	mov     al, 0Ah
   534 00000309 CD10                    	int     10h
   535 0000030B C3                      	retn
   536                                  loc_escape:
   537 0000030C 3C1B                    	cmp     al, 1Bh
   538 0000030E 75EF                    	jne     short pass_escape
   539 00000310 F9                      	stc
   540 00000311 C3                      	retn
   541                                  
   542                                  ;- - - - - - - - - - - - - - - - - - - - - - - - - - - - - - - - -
   543                                  ;  messages
   544                                  ;- - - - - - - - - - - - - - - - - - - - - - - - - - - - - - - - -
   545                                  
   546                                  TrDOS_Welcome:
   547 00000312 0D0A                    	db	0Dh, 0Ah
   548 00000314 54522D444F5320312E-     	db	'TR-DOS 1.44 MB FAT12 Floppy Disk Format Utility'
   549 0000031D 3434204D4220464154-
   550 00000326 313220466C6F707079-
   551 0000032F 204469736B20466F72-
   552 00000338 6D6174205574696C69-
   553 00000341 7479               
   554 00000343 0D0A                    	db	0Dh, 0Ah
   555 00000345 76322E302E31323032-     	db	"v2.0.120218  (c) Erdogan TAN 2005-2018"
   556 0000034E 313820202863292045-
   557 00000357 72646F67616E205441-
   558 00000360 4E20323030352D3230-
   559 00000369 3138               
   560 0000036B 0D0A                    	db	0Dh,0Ah
   561 0000036D 0D0A                    	db	0Dh,0Ah
   562 0000036F 55736167653A206664-     	db	'Usage: fdformat [drive] '
   563 00000378 666F726D6174205B64-
   564 00000381 726976655D20       
   565 00000387 00                      	db	0
   566                                  
   567                                  Msg_DoYouWantToFormat:
   568 00000388 07                      	db	07h
   569 00000389 0D0A                            db	0Dh, 0Ah
   570 0000038B 5741524E494E4721        	db	'WARNING!'
   571 00000393 0D0A                    	db	0Dh, 0Ah
   572 00000395 416C6C206461746120-     	db	'All data on the drive will be erased.'
   573 0000039E 6F6E20746865206472-
   574 000003A7 6976652077696C6C20-
   575 000003B0 626520657261736564-
   576 000003B9 2E                 
   577 000003BA 0D0A                    	db	0Dh, 0Ah
   578 000003BC 0D0A                    	db	0Dh, 0Ah
   579 000003BE 446F20796F75207761-     	db	'Do you want to format drive '
   580 000003C7 6E7420746F20666F72-
   581 000003D0 6D6174206472697665-
   582 000003D9 20                 
   583                                  TrDOS_Drive:
   584 000003DA 413A20285965732F4E-     	db	'A: (Yes/No)? ', 0
   585 000003E3 6F293F2000         
   586                                  
   587                                  Msg_Writing_Boot_Sector:
   588 000003E8 0D0A                    	db	0Dh, 0Ah
   589 000003EA 57726974696E672074-     	db	"Writing trdos boot sector...", 0
   590 000003F3 72646F7320626F6F74-
   591 000003FC 20736563746F722E2E-
   592 00000405 2E00               
   593                                  
   594                                  Msg_Writing_Root_Dir:
   595 00000407 57726974696E672072-     	db	"Writing root directory sectors...", 0
   596 00000410 6F6F74206469726563-
   597 00000419 746F72792073656374-
   598 00000422 6F72732E2E2E00     
   599                                  
   600                                  Msg_Writing_Data_Sectors:
   601 00000429 57726974696E672064-     	db	"Writing data sector: ", 0
   602 00000432 61746120736563746F-
   603 0000043B 723A2000           
   604                                  
   605                                  Sector_Str:
   606 0000043F 3030303000              	db	"0000", 0
   607                                  Cursor_Pos:
   608 00000444 0000                    	dw	0
   609                                  
   610                                  Msg_Writing_FAT_Sectors:
   611 00000446 57726974696E672046-     	db	"Writing FAT sectors...", 0
   612 0000044F 415420736563746F72-
   613 00000458 732E2E2E00         
   614                                  
   615                                  StrVolumeName:
   616 0000045D 00<rept>                	times 	12 db  0
   617                                  
   618                                  Msg_Volume_Name:
   619 00000469 566F6C756D65204E61-     	db	"Volume Name: ", 0
   620 00000472 6D653A2000         
   621                                  
   622                                  Msg_3dot_OK:
   623 00000477 2E2E2E                  	db	"..."
   624                                  Msg_OK:
   625 0000047A 204F4B2E                	db	' OK.'
   626                                  CRLF:
   627 0000047E 0D0A00                  	db	0Dh, 0Ah, 0
   628                                  Msg_YES:
   629 00000481 2059455300              	db	' YES', 0
   630                                  Msg_NO:
   631 00000486 204E4F00                	db	' NO', 0
   632                                  ;
   633                                  Disk_NotReadyOrError:
   634 0000048A 0D0A                    	db	0Dh, 0Ah
   635 0000048C 4469736B206572726F-     	db	'Disk error or drive not ready. Try again? (Y/N) '
   636 00000495 72206F722064726976-
   637 0000049E 65206E6F7420726561-
   638 000004A7 64792E205472792061-
   639 000004B0 6761696E3F2028592F-
   640 000004B9 4E2920             
   641 000004BC 00                      	db	0
   642                                  
   643                                  Error_Code:
   644 000004BD 00                      	db	0
   645                                  
   646                                  FDFORMAT_SECBUFFER:
   647 000004BE F6<rept>                	times	512 db 0F6h
   648                                  FDFORMAT_FATBUFFER:
   649 000006BE F0                      	db	0F0h
   650 000006BF FF                      	db	0FFh
   651 000006C0 FF                      	db	0FFh
   652                                  FDFORMAT_FATBUFFER_S9:
   653 000006C1 00<rept>                	times	512 db 0
   654                                   
   655 000008C1 286329204572646F67-     	db	'(c) Erdogan TAN 1998-2018'
   656 000008CA 616E2054414E203139-
   657 000008D3 39382D32303138     
   658                                  
   659                                  RetryCount:
   660 000008DA 00                      	db	0
   661                                  
   662                                  TRDOS_FAT12_fd_bs:
   663 000008DB <incbin>                	incbin 'TRFDBS.BIN' ; 12/02/2018
